c__builtin__
set
p0
((lp1
V\u2283
p2
aV\u2a87
p3
aV\u2208
p4
aV\u2a8b
p5
aV\u2a7d\u0338
p6
aV\u228f
p7
aV\u2199
p8
aV\u219d
p9
aV\u25c2
p10
aV\u22a3
p11
aV\u2322
p12
aV\u2224
p13
aV\u22a7
p14
aV\u21a9
p15
aV\u21ad
p16
aV\u2aaf
p17
aV\u21b1
p18
aV\u2289
p19
aV\u22b3
p20
aV\u2ac5\u0338
p21
aV\u2ab7
p22
aV\u21bd
p23
aS'<'
p24
aV\u21c1
p25
aV\u22a2
p26
aV\u21c9
p27
aV\u2248
p28
aV\u2acb
p29
aV\u2250
p30
aV\u22b8
p31
aV\u22db
p32
aV\u225c
p33
aV\u22df
p34
aV\u2260
p35
aV\u2264
p36
aV\u22e7
p37
aV\u2268
p38
aV\u22eb
p39
aV\u226c
p40
aV\u2270
p41
aV\u27f5
p42
aV\u228a
p43
aV\u227c
p44
aV\u2280
p45
aV\u2266\u0338
p46
aV\u2a88
p47
aV\u220b
p48
aV\u2a8c
p49
aV\u2290
p50
aV\u21c2
p51
aV\u2196
p52
aV\u226e
p53
aV\u219e
p54
aV\u2223
p55
aV\u21a2
p56
aV\u21a6
p57
aV\u21aa
p58
aV\u22ac
p59
aV\u21ae
p60
aV\u2ab0
p61
aV\u22b4
p62
aV\u21b6
p63
aV\u2ab8
p64
aV\u21ba
p65
aV\u21be
p66
aV\u2a7e\u0338
p67
aV\u2243
p68
aV\u21ca
p69
aV\u2247
p70
aV\u21c6
p71
aV\u22c8
p72
aV\u2276
p73
aV\u2acc
p74
aV\u224f
p75
aV\u2253
p76
aV\u22d4
p77
aV\u2257
p78
aV\u223d
p79
aV\u228b\ufe00
p80
aV\u2267
p81
aV\u22e8
p82
aV\u226b
p83
aV\u22ec
p84
aV\u226f
p85
aV\u2273
p86
aV\u2277
p87
aV\u27f6
p88
aV\u227b
p89
aV\u2a7e
p90
aV\u21ab
p91
aV\u227f
p92
aV\u2281
p93
aV\u2a85
p94
aV\u2a89
p95
aV\u2291
p96
aV\u2192
p97
aV\u2a95
p98
aV\u2197
p99
aV\u219b
p100
aV\u228a\ufe00
p101
aV\u21a3
p102
aV\u22a5
p103
aV\u2226
p104
aV\u2ab0\u0338
p105
aV\u2286
p106
aV\u2ab5
p107
aV\u21b7
p108
aV\u2288
p109
aV\u2ab9
p110
aV\u22b5
p111
aV\u2268\ufe00
p112
aS':'
p113
aV\u2287
p114
aV\u21bf
p115
aS'>'
p116
aV\u21c3
p117
aV\u2242
p118
aV\u2ac5
p119
aV\u21c7
p120
aV\u21cb
p121
aV\u224a
p122
aV\u22cd
p123
aV\u2267\u0338
p124
aV\u2252
p125
aV\u2256
p126
aV\u22d9
p127
aV\u21bb
p128
aV\u2acc\ufe00
p129
aV\u2266
p130
aV\u22e9
p131
aV\u226a
p132
aV\u22ed
p133
aV\u223c
p134
aV\u2ac6\u0338
p135
aV\u2272
p136
aV\u27f7
p137
aV\u2aaf\u0338
p138
aV\u227a
p139
aV\u227e
p140
aV\u2282
p141
aV\u2a86
p142
aV\u2209
p143
aV\u2a8a
p144
aV\u2190
p145
aV\u2292
p146
aV\u2194
p147
aV\u2a96
p148
aV\u2198
p149
aV\u221d
p150
aV\u2234
p151
aV\u21a0
p152
aV\u2323
p153
aV\u219a
p154
aV\u2225
p155
aV\u21ac
p156
aV\u21b0
p157
aV\u22b2
p158
aV\u2235
p159
aV\u2ab6
p160
aV\u25b8
p161
aV\u2aba
p162
aS'='
p163
aV\u21bc
p164
aV\u2241
p165
aV\u21c0
p166
aV\u228b
p167
aV\u2245
p168
aV\u21c4
p169
aV\u2ac6
p170
aV\u21c8
p171
aV\u03f6
p172
aV\u21cc
p173
aV\u2251
p174
aV\u2acb\ufe00
p175
aV\u22da
p176
aV\u22de
p177
aV\u2261
p178
aV\u2265
p179
aV\u22e6
p180
aV\u2269
p181
aV\u2a7d
p182
aV\u22ea
p183
aV\u2271
p184
aV\u2269\ufe00
p185
aV\u227d
p186
aV\u27fc
p187
atp188
Rp189
.